(i__main__
neural_network
p0
(dp1
S'layers'
p2
(lp3
(i__main__
layer
p4
(dp5
S'num_inputs'
p6
I2
sS'neurons'
p7
(lp8
(i__main__
neuron
p9
(dp10
S'new_weight'
p11
(lp12
cnumpy.core.multiarray
_reconstruct
p13
(cnumpy
ndarray
p14
(I0
tp15
S'b'
p16
tp17
Rp18
(I1
(I1
I1
tp19
cnumpy
dtype
p20
(S'f8'
p21
I0
I1
tp22
Rp23
(I3
S'<'
p24
NNNI-1
I-1
I0
tp25
bI00
S'\x9b\x88Ru\x18\xe6Z\xc0'
p26
tp27
bag13
(g14
(I0
tp28
g16
tp29
Rp30
(I1
(I1
I1
tp31
g23
I00
S'\xa7\x89\xcfm\xf7\xfeW\xc0'
p32
tp33
bag13
(g14
(I0
tp34
g16
tp35
Rp36
(I1
(I1
I1
tp37
g23
I00
S'\xe0\x8et\xa0\x8b6T\xc0'
p38
tp39
basS'weight_der'
p40
(lp41
g13
(g14
(I0
tp42
g16
tp43
Rp44
(I1
(I1
tp45
g23
I00
S'\x00\x00\x00\x00\x00\x00\xf0?'
p46
tp47
bag13
(g14
(I0
tp48
g16
tp49
Rp50
(I1
(I1
tp51
g23
I00
S'\xdd\xb5\x84|\xd0\xb3\xd1?'
p52
tp53
bag13
(g14
(I0
tp54
g16
tp55
Rp56
(I1
(I1
tp57
g23
I00
S'\xcb\xa1E\xb6\xf3\xfd\x03@'
p58
tp59
basS'output'
p60
g13
(g14
(I0
tp61
g16
tp62
Rp63
(I1
(I1
tp64
g23
I00
S'\x02q\x87\xec\xe1\xf1\xa8!'
p65
tp66
bsS'derivative'
p67
g13
(g14
(I0
tp68
g16
tp69
Rp70
(I1
(I1
tp71
g23
I00
S'\x02q\x87\xec\xe1\xf1\xa8!'
p72
tp73
bsS'net'
p74
g13
(g14
(I0
tp75
g16
tp76
Rp77
(I1
(I1
I1
tp78
g23
I00
S'\xf6c&\x84\xb7\xfbt\xc0'
p79
tp80
bsS'current_weight'
p81
g13
(g14
(I0
tp82
g16
tp83
Rp84
(I1
(I3
I1
tp85
g23
I00
S'\x9b\x88Ru\x18\xe6Z\xc0\xa7\x89\xcfm\xf7\xfeW\xc0\xe0\x8et\xa0\x8b6T\xc0'
p86
tp87
bsba(i__main__
neuron
p88
(dp89
g11
(lp90
g13
(g14
(I0
tp91
g16
tp92
Rp93
(I1
(I1
I1
tp94
g23
I00
S'\xa1\x80\xc7IK?S\xc0'
p95
tp96
bag13
(g14
(I0
tp97
g16
tp98
Rp99
(I1
(I1
I1
tp100
g23
I00
S'\xf1\xbf\xec\x1e\xf6\xa1Q\xc0'
p101
tp102
bag13
(g14
(I0
tp103
g16
tp104
Rp105
(I1
(I1
I1
tp106
g23
I00
S'96\x1aRM\xdfK\xc0'
p107
tp108
basg40
(lp109
g13
(g14
(I0
tp110
g16
tp111
Rp112
(I1
(I1
tp113
g23
I00
S'\x00\x00\x00\x00\x00\x00\xf0?'
p114
tp115
bag13
(g14
(I0
tp116
g16
tp117
Rp118
(I1
(I1
tp119
g23
I00
S'\xdd\xb5\x84|\xd0\xb3\xd1?'
p120
tp121
bag13
(g14
(I0
tp122
g16
tp123
Rp124
(I1
(I1
tp125
g23
I00
S'\xcb\xa1E\xb6\xf3\xfd\x03@'
p126
tp127
basg60
g13
(g14
(I0
tp128
g16
tp129
Rp130
(I1
(I1
tp131
g23
I00
S't\xdcs\xe6\xe2\x9b\xb3*'
p132
tp133
bsg67
g13
(g14
(I0
tp134
g16
tp135
Rp136
(I1
(I1
tp137
g23
I00
S't\xdcs\xe6\xe2\x9b\xb3*'
p138
tp139
bsg74
g13
(g14
(I0
tp140
g16
tp141
Rp142
(I1
(I1
I1
tp143
g23
I00
S'vtx\xc1\xeenm\xc0'
p144
tp145
bsg81
g13
(g14
(I0
tp146
g16
tp147
Rp148
(I1
(I3
I1
tp149
g23
I00
S'\xa1\x80\xc7IK?S\xc0\xf1\xbf\xec\x1e\xf6\xa1Q\xc096\x1aRM\xdfK\xc0'
p150
tp151
bsba(i__main__
neuron
p152
(dp153
g11
(lp154
g13
(g14
(I0
tp155
g16
tp156
Rp157
(I1
(I1
I1
tp158
g23
I00
S'H\xb4d<\xcc\xb9M\xc0'
p159
tp160
bag13
(g14
(I0
tp161
g16
tp162
Rp163
(I1
(I1
I1
tp164
g23
I00
S'a\x90\x9d$\xab\x9fI\xc0'
p165
tp166
bag13
(g14
(I0
tp167
g16
tp168
Rp169
(I1
(I1
I1
tp170
g23
I00
S'\xf9N\x9c\x04\x1a\xb3=\xc0'
p171
tp172
basg40
(lp173
g13
(g14
(I0
tp174
g16
tp175
Rp176
(I1
(I1
tp177
g23
I00
S'\x00\x00\x00\x00\x00\x00\xf0?'
p178
tp179
bag13
(g14
(I0
tp180
g16
tp181
Rp182
(I1
(I1
tp183
g23
I00
S'\xdd\xb5\x84|\xd0\xb3\xd1?'
p184
tp185
bag13
(g14
(I0
tp186
g16
tp187
Rp188
(I1
(I1
tp189
g23
I00
S'\xcb\xa1E\xb6\xf3\xfd\x03@'
p190
tp191
basg60
g13
(g14
(I0
tp192
g16
tp193
Rp194
(I1
(I1
tp195
g23
I00
S'\x8b\x0eN\xfd\xbf\xa6\xa02'
p196
tp197
bsg67
g13
(g14
(I0
tp198
g16
tp199
Rp200
(I1
(I1
tp201
g23
I00
S'\x8b\x0eN\xfd\xbf\xa6\xa02'
p202
tp203
bsg74
g13
(g14
(I0
tp204
g16
tp205
Rp206
(I1
(I1
I1
tp207
g23
I00
S'\x00\x02?\xda6sb\xc0'
p208
tp209
bsg81
g13
(g14
(I0
tp210
g16
tp211
Rp212
(I1
(I3
I1
tp213
g23
I00
S'H\xb4d<\xcc\xb9M\xc0a\x90\x9d$\xab\x9fI\xc0\xf9N\x9c\x04\x1a\xb3=\xc0'
p214
tp215
bsba(i__main__
neuron
p216
(dp217
g11
(lp218
g13
(g14
(I0
tp219
g16
tp220
Rp221
(I1
(I1
I1
tp222
g23
I00
S'\xeaUl\x82\xff\xc9C\xc0'
p223
tp224
bag13
(g14
(I0
tp225
g16
tp226
Rp227
(I1
(I1
I1
tp228
g23
I00
S'@i\xd0\xe2`z:\xc0'
p229
tp230
bag13
(g14
(I0
tp231
g16
tp232
Rp233
(I1
(I1
I1
tp234
g23
I00
S'\x08\xb1\xa4\xf8\xbf\x0e\n\xc0'
p235
tp236
basg40
(lp237
g13
(g14
(I0
tp238
g16
tp239
Rp240
(I1
(I1
tp241
g23
I00
S'\x00\x00\x00\x00\x00\x00\xf0?'
p242
tp243
bag13
(g14
(I0
tp244
g16
tp245
Rp246
(I1
(I1
tp247
g23
I00
S'\xdd\xb5\x84|\xd0\xb3\xd1?'
p248
tp249
bag13
(g14
(I0
tp250
g16
tp251
Rp252
(I1
(I1
tp253
g23
I00
S'\xcb\xa1E\xb6\xf3\xfd\x03@'
p254
tp255
basg60
g13
(g14
(I0
tp256
g16
tp257
Rp258
(I1
(I1
tp259
g23
I00
S'pPA\xea\x0b\xd6\xfc:'
p260
tp261
bsg67
g13
(g14
(I0
tp262
g16
tp263
Rp264
(I1
(I1
tp265
g23
I00
S'pPA\xea\x0b\xd6\xfc:'
p266
tp267
bsg74
g13
(g14
(I0
tp268
g16
tp269
Rp270
(I1
(I1
I1
tp271
g23
I00
S'a\xee\xe1\x14nnK\xc0'
p272
tp273
bsg81
g13
(g14
(I0
tp274
g16
tp275
Rp276
(I1
(I3
I1
tp277
g23
I00
S'\xeaUl\x82\xff\xc9C\xc0@i\xd0\xe2`z:\xc0\x08\xb1\xa4\xf8\xbf\x0e\n\xc0'
p278
tp279
bsba(i__main__
neuron
p280
(dp281
g11
(lp282
g13
(g14
(I0
tp283
g16
tp284
Rp285
(I1
(I1
I1
tp286
g23
I00
S'G%u"\x85C\x19\xc0'
p287
tp288
bag13
(g14
(I0
tp289
g16
tp290
Rp291
(I1
(I1
I1
tp292
g23
I00
S'\x89p\xc7\x8ai\xde\x12\xc0'
p293
tp294
bag13
(g14
(I0
tp295
g16
tp296
Rp297
(I1
(I1
I1
tp298
g23
I00
S'C\x9c-\xfciv\x0b@'
p299
tp300
basg40
(lp301
g13
(g14
(I0
tp302
g16
tp303
Rp304
(I1
(I1
tp305
g23
I00
S'\x00\x00\x00\x00\x00\x00\xf0?'
p306
tp307
bag13
(g14
(I0
tp308
g16
tp309
Rp310
(I1
(I1
tp311
g23
I00
S'\xdd\xb5\x84|\xd0\xb3\xd1?'
p312
tp313
bag13
(g14
(I0
tp314
g16
tp315
Rp316
(I1
(I1
tp317
g23
I00
S'\xcb\xa1E\xb6\xf3\xfd\x03@'
p318
tp319
basg60
g13
(g14
(I0
tp320
g16
tp321
Rp322
(I1
(I1
tp323
g23
I00
S'$AbQ4\xf0\xe7?'
p324
tp325
bsg67
g13
(g14
(I0
tp326
g16
tp327
Rp328
(I1
(I1
tp329
g23
I00
S'\x83\xe1*-x\x1f\xc8?'
p330
tp331
bsg74
g13
(g14
(I0
tp332
g16
tp333
Rp334
(I1
(I1
I1
tp335
g23
I00
S'pSN\xe2\xe6i\xf1?'
p336
tp337
bsg81
g13
(g14
(I0
tp338
g16
tp339
Rp340
(I1
(I3
I1
tp341
g23
I00
S'G%u"\x85C\x19\xc0\x89p\xc7\x8ai\xde\x12\xc0C\x9c-\xfciv\x0b@'
p342
tp343
bsbasS'sigma'
p344
cnumpy.core.multiarray
scalar
p345
(g23
S'*$`\xe5\xce\x1a\xe1?'
p346
tp347
Rp348
sS'activation'
p349
(i__main__
activation_function
p350
(dp351
S'function'
p352
c__main__
sigmoid_func
p353
sg67
c__main__
sigmoid_derivative
p354
sbsS'num_neurons'
p355
I5
sba(i__main__
layer
p356
(dp357
g6
I5
sg7
(lp358
(i__main__
neuron
p359
(dp360
g11
(lp361
g13
(g14
(I0
tp362
g16
tp363
Rp364
(I1
(I1
I1
tp365
g23
I00
S'\x8b\xb3\x81\x97\xa8i\x85@'
p366
tp367
bag13
(g14
(I0
tp368
g16
tp369
Rp370
(I1
(I1
I1
tp371
g23
I00
S'\xfd$\x13}{L\x8d@'
p372
tp373
bag13
(g14
(I0
tp374
g16
tp375
Rp376
(I1
(I1
I1
tp377
g23
I00
S'\x98T\xc0\xaaNn\x92@'
p378
tp379
bag13
(g14
(I0
tp380
g16
tp381
Rp382
(I1
(I1
I1
tp383
g23
I00
S'\xf9\xa5#%\xb4\xf0\x96@'
p384
tp385
bag13
(g14
(I0
tp386
g16
tp387
Rp388
(I1
(I1
I1
tp389
g23
I00
S'\xea\x01\x85d\x94r\x9d@'
p390
tp391
bag13
(g14
(I0
tp392
g16
tp393
Rp394
(I1
(I1
I1
tp395
g23
I00
S'5\x9e\xc6\xd9\x8a\xb5\xa6@'
p396
tp397
basg40
(lp398
g13
(g14
(I0
tp399
g16
tp400
Rp401
(I1
(I1
tp402
g23
I00
S'\x00\x00\x00\x00\x00\x00\xf0?'
p403
tp404
bag13
(g14
(I0
tp405
g16
tp406
Rp407
(I1
(I1
tp408
g23
I00
S'\x02q\x87\xec\xe1\xf1\xa8!'
p409
tp410
bag13
(g14
(I0
tp411
g16
tp412
Rp413
(I1
(I1
tp414
g23
I00
S't\xdcs\xe6\xe2\x9b\xb3*'
p415
tp416
bag13
(g14
(I0
tp417
g16
tp418
Rp419
(I1
(I1
tp420
g23
I00
S'\x8b\x0eN\xfd\xbf\xa6\xa02'
p421
tp422
bag13
(g14
(I0
tp423
g16
tp424
Rp425
(I1
(I1
tp426
g23
I00
S'pPA\xea\x0b\xd6\xfc:'
p427
tp428
bag13
(g14
(I0
tp429
g16
tp430
Rp431
(I1
(I1
tp432
g23
I00
S'$AbQ4\xf0\xe7?'
p433
tp434
basg60
g13
(g14
(I0
tp435
g16
tp436
Rp437
(I1
(I1
tp438
g23
I00
S'\x00\x00\x00\x00\x00\x00\xf0?'
p439
tp440
bsg67
g13
(g14
(I0
tp441
g16
tp442
Rp443
(I1
(I1
tp444
g23
I00
S'\x00\x00\x00\x00\x00\x00\x00\x00'
p445
tp446
bsg74
g13
(g14
(I0
tp447
g16
tp448
Rp449
(I1
(I1
I1
tp450
g23
I00
S'\xdet\x9fx\\V\xa6@'
p451
tp452
bsg81
g13
(g14
(I0
tp453
g16
tp454
Rp455
(I1
(I6
I1
tp456
g23
I00
S'\x8b\xb3\x81\x97\xa8i\x85@\xfd$\x13}{L\x8d@\x98T\xc0\xaaNn\x92@\xf9\xa5#%\xb4\xf0\x96@\xea\x01\x85d\x94r\x9d@5\x9e\xc6\xd9\x8a\xb5\xa6@'
p457
tp458
bsba(i__main__
neuron
p459
(dp460
g11
(lp461
g13
(g14
(I0
tp462
g16
tp463
Rp464
(I1
(I1
I1
tp465
g23
I00
S'\x8bUO\r\xc6\xd9\xa0@'
p466
tp467
bag13
(g14
(I0
tp468
g16
tp469
Rp470
(I1
(I1
I1
tp471
g23
I00
S'\x1b\x11\xd8\xc6\xbf\x8c\x9d@'
p472
tp473
bag13
(g14
(I0
tp474
g16
tp475
Rp476
(I1
(I1
I1
tp477
g23
I00
S'\x8e\x963\x16\xa8\x88\x99@'
p478
tp479
bag13
(g14
(I0
tp480
g16
tp481
Rp482
(I1
(I1
I1
tp483
g23
I00
S')GSz\r\xec\x94@'
p484
tp485
bag13
(g14
(I0
tp486
g16
tp487
Rp488
(I1
(I1
I1
tp489
g23
I00
S'\x06\x88\xc81\x86\x95\x8c@'
p490
tp491
bag13
(g14
(I0
tp492
g16
tp493
Rp494
(I1
(I1
I1
tp495
g23
I00
S'C\x99\x18\x85+\x14]\xc0'
p496
tp497
basg40
(lp498
g13
(g14
(I0
tp499
g16
tp500
Rp501
(I1
(I1
tp502
g23
I00
S'\x00\x00\x00\x00\x00\x00\xf0?'
p503
tp504
bag13
(g14
(I0
tp505
g16
tp506
Rp507
(I1
(I1
tp508
g23
I00
S'\x02q\x87\xec\xe1\xf1\xa8!'
p509
tp510
bag13
(g14
(I0
tp511
g16
tp512
Rp513
(I1
(I1
tp514
g23
I00
S't\xdcs\xe6\xe2\x9b\xb3*'
p515
tp516
bag13
(g14
(I0
tp517
g16
tp518
Rp519
(I1
(I1
tp520
g23
I00
S'\x8b\x0eN\xfd\xbf\xa6\xa02'
p521
tp522
bag13
(g14
(I0
tp523
g16
tp524
Rp525
(I1
(I1
tp526
g23
I00
S'pPA\xea\x0b\xd6\xfc:'
p527
tp528
bag13
(g14
(I0
tp529
g16
tp530
Rp531
(I1
(I1
tp532
g23
I00
S'$AbQ4\xf0\xe7?'
p533
tp534
basg60
g13
(g14
(I0
tp535
g16
tp536
Rp537
(I1
(I1
tp538
g23
I00
S'\x00\x00\x00\x00\x00\x00\xf0?'
p539
tp540
bsg67
g13
(g14
(I0
tp541
g16
tp542
Rp543
(I1
(I1
tp544
g23
I00
S'\x00\x00\x00\x00\x00\x00\x00\x00'
p545
tp546
bsg74
g13
(g14
(I0
tp547
g16
tp548
Rp549
(I1
(I1
I1
tp550
g23
I00
S'T\xd8\x0f\xb7\xe1+\xa0@'
p551
tp552
bsg81
g13
(g14
(I0
tp553
g16
tp554
Rp555
(I1
(I6
I1
tp556
g23
I00
S'\x8bUO\r\xc6\xd9\xa0@\x1b\x11\xd8\xc6\xbf\x8c\x9d@\x8e\x963\x16\xa8\x88\x99@)GSz\r\xec\x94@\x06\x88\xc81\x86\x95\x8c@C\x99\x18\x85+\x14]\xc0'
p557
tp558
bsbasg344
Nsg349
g350
sg355
I2
sbasS'output_layer'
p559
S'softmax'
p560
sS'num_outputs'
p561
I2
sS'momentum'
p562
F0.9
sS'num_layers'
p563
I2
sS'total_error'
p564
g13
(g14
(I0
tp565
g16
tp566
Rp567
(I1
(I2
I1
tp568
g23
I00
S'\x00\x00\x00\x00\x00\x00\xc0?\x00\x00\x00\x00\x00\x00\xc0?'
p569
tp570
bsb.