(i__main__
neural_network
p0
(dp1
S'layers'
p2
(lp3
(i__main__
layer
p4
(dp5
S'num_inputs'
p6
I2
sS'neurons'
p7
(lp8
(i__main__
neuron
p9
(dp10
S'new_weight'
p11
(lp12
cnumpy.core.multiarray
_reconstruct
p13
(cnumpy
ndarray
p14
(I0
tp15
S'b'
p16
tp17
Rp18
(I1
(I1
I1
tp19
cnumpy
dtype
p20
(S'f8'
p21
I0
I1
tp22
Rp23
(I3
S'<'
p24
NNNI-1
I-1
I0
tp25
bI00
S'\x8b,2\xe4h:3@'
p26
tp27
bag13
(g14
(I0
tp28
g16
tp29
Rp30
(I1
(I1
I1
tp31
g23
I00
S'\xaa\x96ya\x930$@'
p32
tp33
bag13
(g14
(I0
tp34
g16
tp35
Rp36
(I1
(I1
I1
tp37
g23
I00
S'\x1a\x89R~7\x871\xc0'
p38
tp39
basS'weight_der'
p40
(lp41
g13
(g14
(I0
tp42
g16
tp43
Rp44
(I1
(I1
tp45
g23
I00
S'\x00\x00\x00\x00\x00\x00\xf0?'
p46
tp47
bag13
(g14
(I0
tp48
g16
tp49
Rp50
(I1
(I1
tp51
g23
I00
S'q\xac\x8b\xdbh\x00\xdf?'
p52
tp53
bag13
(g14
(I0
tp54
g16
tp55
Rp56
(I1
(I1
tp57
g23
I00
S'\xa3#\xb9\xfc\x87t\x00@'
p58
tp59
basS'output'
p60
g13
(g14
(I0
tp61
g16
tp62
Rp63
(I1
(I1
I1
tp64
g23
I00
S'_;\xef\xebZ|\xdb>'
p65
tp66
bsS'derivative'
p67
g13
(g14
(I0
tp68
g16
tp69
Rp70
(I1
(I1
I1
tp71
g23
I00
S'y\xe3\x10\x1eO|\xdb>'
p72
tp73
bsS'net'
p74
g13
(g14
(I0
tp75
g16
tp76
Rp77
(I1
(I1
I1
tp78
g23
I00
S"\xc4\xe6\x7f&\x02\xdf'\xc0"
p79
tp80
bsS'current_weight'
p81
g13
(g14
(I0
tp82
g16
tp83
Rp84
(I1
(I3
I1
tp85
g23
I00
S'\x8b,2\xe4h:3@\xaa\x96ya\x930$@\x1a\x89R~7\x871\xc0'
p86
tp87
bsba(i__main__
neuron
p88
(dp89
g11
(lp90
g13
(g14
(I0
tp91
g16
tp92
Rp93
(I1
(I1
I1
tp94
g23
I00
S'\x84\x9c\xec\x02y\x99\x1c\xc0'
p95
tp96
bag13
(g14
(I0
tp97
g16
tp98
Rp99
(I1
(I1
I1
tp100
g23
I00
S'\xa1\x15]Tb\x05\x0b@'
p101
tp102
bag13
(g14
(I0
tp103
g16
tp104
Rp105
(I1
(I1
I1
tp106
g23
I00
S'-<\xa1T\xb0\x072\xc0'
p107
tp108
basg40
(lp109
g13
(g14
(I0
tp110
g16
tp111
Rp112
(I1
(I1
tp113
g23
I00
S'\x00\x00\x00\x00\x00\x00\xf0?'
p114
tp115
bag13
(g14
(I0
tp116
g16
tp117
Rp118
(I1
(I1
tp119
g23
I00
S'q\xac\x8b\xdbh\x00\xdf?'
p120
tp121
bag13
(g14
(I0
tp122
g16
tp123
Rp124
(I1
(I1
tp125
g23
I00
S'\xa3#\xb9\xfc\x87t\x00@'
p126
tp127
basg60
g13
(g14
(I0
tp128
g16
tp129
Rp130
(I1
(I1
I1
tp131
g23
I00
S'\xb8\xd0\xa0\xc99J\x17<'
p132
tp133
bsg67
g13
(g14
(I0
tp134
g16
tp135
Rp136
(I1
(I1
I1
tp137
g23
I00
S'\xb8\xd0\xa0\xc99J\x17<'
p138
tp139
bsg74
g13
(g14
(I0
tp140
g16
tp141
Rp142
(I1
(I1
I1
tp143
g23
I00
S'/ \x01\xb7\xc2LE\xc0'
p144
tp145
bsg81
g13
(g14
(I0
tp146
g16
tp147
Rp148
(I1
(I3
I1
tp149
g23
I00
S'\x84\x9c\xec\x02y\x99\x1c\xc0\xa1\x15]Tb\x05\x0b@-<\xa1T\xb0\x072\xc0'
p150
tp151
bsba(i__main__
neuron
p152
(dp153
g11
(lp154
g13
(g14
(I0
tp155
g16
tp156
Rp157
(I1
(I1
I1
tp158
g23
I00
S'[\xd1\xd1\xd9N\xa46\xc0'
p159
tp160
bag13
(g14
(I0
tp161
g16
tp162
Rp163
(I1
(I1
I1
tp164
g23
I00
S'\x08\xa7\x19\xa9\xc0N-\xc0'
p165
tp166
bag13
(g14
(I0
tp167
g16
tp168
Rp169
(I1
(I1
I1
tp170
g23
I00
S'\xe0c\xe0B\xd7\xf6)\xc0'
p171
tp172
basg40
(lp173
g13
(g14
(I0
tp174
g16
tp175
Rp176
(I1
(I1
tp177
g23
I00
S'\x00\x00\x00\x00\x00\x00\xf0?'
p178
tp179
bag13
(g14
(I0
tp180
g16
tp181
Rp182
(I1
(I1
tp183
g23
I00
S'q\xac\x8b\xdbh\x00\xdf?'
p184
tp185
bag13
(g14
(I0
tp186
g16
tp187
Rp188
(I1
(I1
tp189
g23
I00
S'\xa3#\xb9\xfc\x87t\x00@'
p190
tp191
basg60
g13
(g14
(I0
tp192
g16
tp193
Rp194
(I1
(I1
I1
tp195
g23
I00
S'\xaaC\xbc\x94a\xc0\xd7:'
p196
tp197
bsg67
g13
(g14
(I0
tp198
g16
tp199
Rp200
(I1
(I1
I1
tp201
g23
I00
S'\xaaC\xbc\x94a\xc0\xd7:'
p202
tp203
bsg74
g13
(g14
(I0
tp204
g16
tp205
Rp206
(I1
(I1
I1
tp207
g23
I00
S'H\x8c\x93\xa0\xb48L\xc0'
p208
tp209
bsg81
g13
(g14
(I0
tp210
g16
tp211
Rp212
(I1
(I3
I1
tp213
g23
I00
S'[\xd1\xd1\xd9N\xa46\xc0\x08\xa7\x19\xa9\xc0N-\xc0\xe0c\xe0B\xd7\xf6)\xc0'
p214
tp215
bsba(i__main__
neuron
p216
(dp217
g11
(lp218
g13
(g14
(I0
tp219
g16
tp220
Rp221
(I1
(I1
I1
tp222
g23
I00
S'\xd8\xa6*\x8a\x8e\xf00\xc0'
p223
tp224
bag13
(g14
(I0
tp225
g16
tp226
Rp227
(I1
(I1
I1
tp228
g23
I00
S'CM\xfc\x0e\x1c\xe6"\xc0'
p229
tp230
bag13
(g14
(I0
tp231
g16
tp232
Rp233
(I1
(I1
I1
tp234
g23
I00
S'\xe0a\x80\xd2f\x98!\xc0'
p235
tp236
basg40
(lp237
g13
(g14
(I0
tp238
g16
tp239
Rp240
(I1
(I1
tp241
g23
I00
S'\x00\x00\x00\x00\x00\x00\xf0?'
p242
tp243
bag13
(g14
(I0
tp244
g16
tp245
Rp246
(I1
(I1
tp247
g23
I00
S'q\xac\x8b\xdbh\x00\xdf?'
p248
tp249
bag13
(g14
(I0
tp250
g16
tp251
Rp252
(I1
(I1
tp253
g23
I00
S'\xa3#\xb9\xfc\x87t\x00@'
p254
tp255
basg60
g13
(g14
(I0
tp256
g16
tp257
Rp258
(I1
(I1
I1
tp259
g23
I00
S'\xab\x82\xbf\xb2\xb3\xda\\<'
p260
tp261
bsg67
g13
(g14
(I0
tp262
g16
tp263
Rp264
(I1
(I1
I1
tp265
g23
I00
S'\xab\x82\xbf\xb2\xb3\xda\\<'
p266
tp267
bsg74
g13
(g14
(I0
tp268
g16
tp269
Rp270
(I1
(I1
I1
tp271
g23
I00
S'\xd5\xd2\xb8dr\xceC\xc0'
p272
tp273
bsg81
g13
(g14
(I0
tp274
g16
tp275
Rp276
(I1
(I3
I1
tp277
g23
I00
S'\xd8\xa6*\x8a\x8e\xf00\xc0CM\xfc\x0e\x1c\xe6"\xc0\xe0a\x80\xd2f\x98!\xc0'
p278
tp279
bsba(i__main__
neuron
p280
(dp281
g11
(lp282
g13
(g14
(I0
tp283
g16
tp284
Rp285
(I1
(I1
I1
tp286
g23
I00
S'1\x8d\xa1\x88\xaf\x1b+\xc0'
p287
tp288
bag13
(g14
(I0
tp289
g16
tp290
Rp291
(I1
(I1
I1
tp292
g23
I00
S'\xb3\x9a3"\xe8\x12\x1a\xc0'
p293
tp294
bag13
(g14
(I0
tp295
g16
tp296
Rp297
(I1
(I1
I1
tp298
g23
I00
S'\xa8\xf4\xf3\x96\xdc\xd9\x16\xc0'
p299
tp300
basg40
(lp301
g13
(g14
(I0
tp302
g16
tp303
Rp304
(I1
(I1
tp305
g23
I00
S'\x00\x00\x00\x00\x00\x00\xf0?'
p306
tp307
bag13
(g14
(I0
tp308
g16
tp309
Rp310
(I1
(I1
tp311
g23
I00
S'q\xac\x8b\xdbh\x00\xdf?'
p312
tp313
bag13
(g14
(I0
tp314
g16
tp315
Rp316
(I1
(I1
tp317
g23
I00
S'\xa3#\xb9\xfc\x87t\x00@'
p318
tp319
basg60
g13
(g14
(I0
tp320
g16
tp321
Rp322
(I1
(I1
I1
tp323
g23
I00
S'A\xfc#\x0b&\xa6^='
p324
tp325
bsg67
g13
(g14
(I0
tp326
g16
tp327
Rp328
(I1
(I1
I1
tp329
g23
I00
S'\x94\xed#\x0b&\xa6^='
p330
tp331
bsg74
g13
(g14
(I0
tp332
g16
tp333
Rp334
(I1
(I1
I1
tp335
g23
I00
S'\x10#\x9a\xc0Pv<\xc0'
p336
tp337
bsg81
g13
(g14
(I0
tp338
g16
tp339
Rp340
(I1
(I3
I1
tp341
g23
I00
S'1\x8d\xa1\x88\xaf\x1b+\xc0\xb3\x9a3"\xe8\x12\x1a\xc0\xa8\xf4\xf3\x96\xdc\xd9\x16\xc0'
p342
tp343
bsbasS'sigma'
p344
cnumpy.core.multiarray
scalar
p345
(g23
S'*$`\xe5\xce\x1a\xe1?'
p346
tp347
Rp348
sS'activation'
p349
(i__main__
activation_function
p350
(dp351
S'function'
p352
c__main__
sigmoid_func
p353
sg67
c__main__
sigmoid_derivative
p354
sbsS'num_neurons'
p355
I5
sba(i__main__
layer
p356
(dp357
g6
I5
sg7
(lp358
(i__main__
neuron
p359
(dp360
g11
(lp361
g13
(g14
(I0
tp362
g16
tp363
Rp364
(I1
(I1
I1
tp365
g23
I00
S'\xa2a\x9ce\xc0\xf1\x12@'
p366
tp367
bag13
(g14
(I0
tp368
g16
tp369
Rp370
(I1
(I1
I1
tp371
g23
I00
S'\xdb\xe0\x9a\xef\xef5\x15\xc0'
p372
tp373
bag13
(g14
(I0
tp374
g16
tp375
Rp376
(I1
(I1
I1
tp377
g23
I00
S'\xe6\xd1\xec\xaawr*\xc0'
p378
tp379
bag13
(g14
(I0
tp380
g16
tp381
Rp382
(I1
(I1
I1
tp383
g23
I00
S'\xa1MX\x04\\\x17%\xc0'
p384
tp385
bag13
(g14
(I0
tp386
g16
tp387
Rp388
(I1
(I1
I1
tp389
g23
I00
S'\xdc\x042z\xba\xef!\xc0'
p390
tp391
bag13
(g14
(I0
tp392
g16
tp393
Rp394
(I1
(I1
I1
tp395
g23
I00
S'\xac\xc2\x1c\x87:\xe9\x19\xc0'
p396
tp397
basg40
(lp398
g13
(g14
(I0
tp399
g16
tp400
Rp401
(I1
(I1
tp402
g23
I00
S'\x00\x00\x00\x00\x00\x00\xf0?'
p403
tp404
bag13
(g14
(I0
tp405
g16
tp406
Rp407
(I1
(I1
tp408
g23
I00
S'_;\xef\xebZ|\xdb>'
p409
tp410
bag13
(g14
(I0
tp411
g16
tp412
Rp413
(I1
(I1
tp414
g23
I00
S'\xb8\xd0\xa0\xc99J\x17<'
p415
tp416
bag13
(g14
(I0
tp417
g16
tp418
Rp419
(I1
(I1
tp420
g23
I00
S'\xaaC\xbc\x94a\xc0\xd7:'
p421
tp422
bag13
(g14
(I0
tp423
g16
tp424
Rp425
(I1
(I1
tp426
g23
I00
S'\xab\x82\xbf\xb2\xb3\xda\\<'
p427
tp428
bag13
(g14
(I0
tp429
g16
tp430
Rp431
(I1
(I1
tp432
g23
I00
S'A\xfc#\x0b&\xa6^='
p433
tp434
basg60
g13
(g14
(I0
tp435
g16
tp436
Rp437
(I1
(I1
I1
tp438
g23
I00
S'\x90C\x9a\xde\xbf\xb8\xef?'
p439
tp440
bsg67
g13
(g14
(I0
tp441
g16
tp442
Rp443
(I1
(I1
I1
tp444
g23
I00
S'\x81\xd0@\x14_\xa8\x81?'
p445
tp446
bsg74
g13
(g14
(I0
tp447
g16
tp448
Rp449
(I1
(I1
I1
tp450
g23
I00
S'\xa0\xcf!\xa1\xa3\xf1\x12@'
p451
tp452
bsg81
g13
(g14
(I0
tp453
g16
tp454
Rp455
(I1
(I6
I1
tp456
g23
I00
S'\xa2a\x9ce\xc0\xf1\x12@\xdb\xe0\x9a\xef\xef5\x15\xc0\xe6\xd1\xec\xaawr*\xc0\xa1MX\x04\\\x17%\xc0\xdc\x042z\xba\xef!\xc0\xac\xc2\x1c\x87:\xe9\x19\xc0'
p457
tp458
bsba(i__main__
neuron
p459
(dp460
g11
(lp461
g13
(g14
(I0
tp462
g16
tp463
Rp464
(I1
(I1
I1
tp465
g23
I00
S'\x1e\xa6<\x93$\r\x13\xc0'
p466
tp467
bag13
(g14
(I0
tp468
g16
tp469
Rp470
(I1
(I1
I1
tp471
g23
I00
S'\x89\x99K\xd8\xb1a\x13@'
p472
tp473
bag13
(g14
(I0
tp474
g16
tp475
Rp476
(I1
(I1
I1
tp477
g23
I00
S'\xa6l\x95\xfcy\xd9%@'
p478
tp479
bag13
(g14
(I0
tp480
g16
tp481
Rp482
(I1
(I1
I1
tp483
g23
I00
S'A\x17\xf4\xb7\xc4\x02%@'
p484
tp485
bag13
(g14
(I0
tp486
g16
tp487
Rp488
(I1
(I1
I1
tp489
g23
I00
S'rE\x9ac\xe8\xd4!@'
p490
tp491
bag13
(g14
(I0
tp492
g16
tp493
Rp494
(I1
(I1
I1
tp495
g23
I00
S'\x862\x8fj\x94\x10\x1c@'
p496
tp497
basg40
(lp498
g13
(g14
(I0
tp499
g16
tp500
Rp501
(I1
(I1
tp502
g23
I00
S'\x00\x00\x00\x00\x00\x00\xf0?'
p503
tp504
bag13
(g14
(I0
tp505
g16
tp506
Rp507
(I1
(I1
tp508
g23
I00
S'_;\xef\xebZ|\xdb>'
p509
tp510
bag13
(g14
(I0
tp511
g16
tp512
Rp513
(I1
(I1
tp514
g23
I00
S'\xb8\xd0\xa0\xc99J\x17<'
p515
tp516
bag13
(g14
(I0
tp517
g16
tp518
Rp519
(I1
(I1
tp520
g23
I00
S'\xaaC\xbc\x94a\xc0\xd7:'
p521
tp522
bag13
(g14
(I0
tp523
g16
tp524
Rp525
(I1
(I1
tp526
g23
I00
S'\xab\x82\xbf\xb2\xb3\xda\\<'
p527
tp528
bag13
(g14
(I0
tp529
g16
tp530
Rp531
(I1
(I1
tp532
g23
I00
S'A\xfc#\x0b&\xa6^='
p533
tp534
basg60
g13
(g14
(I0
tp535
g16
tp536
Rp537
(I1
(I1
I1
tp538
g23
I00
S'E\x16\xafI|X\x81?'
p539
tp540
bsg67
g13
(g14
(I0
tp541
g16
tp542
Rp543
(I1
(I1
I1
tp544
g23
I00
S',\x0e\xc0f\xe02\x81?'
p545
tp546
bsg74
g13
(g14
(I0
tp547
g16
tp548
Rp549
(I1
(I1
I1
tp550
g23
I00
S'W*\xaa\r\x14\r\x13\xc0'
p551
tp552
bsg81
g13
(g14
(I0
tp553
g16
tp554
Rp555
(I1
(I6
I1
tp556
g23
I00
S'\x1e\xa6<\x93$\r\x13\xc0\x89\x99K\xd8\xb1a\x13@\xa6l\x95\xfcy\xd9%@A\x17\xf4\xb7\xc4\x02%@rE\x9ac\xe8\xd4!@\x862\x8fj\x94\x10\x1c@'
p557
tp558
bsbasg344
Nsg349
g350
sg355
I2
sbasS'output_layer'
p559
(i__main__
activation_function
p560
(dp561
g352
c__main__
softmax_func
p562
sg67
c__main__
softmax_derivative
p563
sbsS'error_array'
p564
(lp565
g13
(g14
(I0
tp566
g16
tp567
Rp568
(I1
(I1
tp569
g23
I00
S'\x02!q\x83\xf9\x0f\x9a?'
p570
tp571
bag13
(g14
(I0
tp572
g16
tp573
Rp574
(I1
(I1
tp575
g23
I00
S'\xb0\xa1\x14\xd7\xff#\xa3?'
p576
tp577
bag13
(g14
(I0
tp578
g16
tp579
Rp580
(I1
(I1
tp581
g23
I00
S"'vp#\x91\xf7\xad?"
p582
tp583
bag13
(g14
(I0
tp584
g16
tp585
Rp586
(I1
(I1
tp587
g23
I00
S'\x9ck\xad\xc0\xe2\x17\xae?'
p588
tp589
bag13
(g14
(I0
tp590
g16
tp591
Rp592
(I1
(I1
tp593
g23
I00
S'\xc6\xba\xff\xc5\x83\xf1\xb2?'
p594
tp595
bag13
(g14
(I0
tp596
g16
tp597
Rp598
(I1
(I1
tp599
g23
I00
S'fP*\xb2\x83g\xb9?'
p600
tp601
bag13
(g14
(I0
tp602
g16
tp603
Rp604
(I1
(I1
tp605
g23
I00
S'\x97\xd1e9\xf6\xa3e?'
p606
tp607
bag13
(g14
(I0
tp608
g16
tp609
Rp610
(I1
(I1
tp611
g23
I00
S'\xc0\xe9\xb7\xf8S.V?'
p612
tp613
bag13
(g14
(I0
tp614
g16
tp615
Rp616
(I1
(I1
tp617
g23
I00
S'\x88\xe4{R\xb3\xf8V?'
p618
tp619
bag13
(g14
(I0
tp620
g16
tp621
Rp622
(I1
(I1
tp623
g23
I00
S'U\xd8\xede.\xcdW?'
p624
tp625
bag13
(g14
(I0
tp626
g16
tp627
Rp628
(I1
(I1
tp629
g23
I00
S'hz\xe2>\xed\x1eX?'
p630
tp631
bag13
(g14
(I0
tp632
g16
tp633
Rp634
(I1
(I1
tp635
g23
I00
S'\xaf\x94j)\xd2\x19W?'
p636
tp637
bag13
(g14
(I0
tp638
g16
tp639
Rp640
(I1
(I1
tp641
g23
I00
S'\x9d$\xa5\x90\xc7\xe0S?'
p642
tp643
bag13
(g14
(I0
tp644
g16
tp645
Rp646
(I1
(I1
tp647
g23
I00
S'j\x93\xab\x13f~P?'
p648
tp649
bag13
(g14
(I0
tp650
g16
tp651
Rp652
(I1
(I1
tp653
g23
I00
S'<+\x8e \x99\x8fK?'
p654
tp655
bag13
(g14
(I0
tp656
g16
tp657
Rp658
(I1
(I1
tp659
g23
I00
S'\x06M\x08\x16\x89\xeaG?'
p660
tp661
bag13
(g14
(I0
tp662
g16
tp663
Rp664
(I1
(I1
tp665
g23
I00
S'"\x87\x00\xc1\xb3ZE?'
p666
tp667
bag13
(g14
(I0
tp668
g16
tp669
Rp670
(I1
(I1
tp671
g23
I00
S'\x1c\x83^\xbd\xb5lC?'
p672
tp673
bag13
(g14
(I0
tp674
g16
tp675
Rp676
(I1
(I1
tp677
g23
I00
S'\xc6\x80k\x83;\xdcA?'
p678
tp679
bag13
(g14
(I0
tp680
g16
tp681
Rp682
(I1
(I1
tp683
g23
I00
S'\xe4F\xff\xc0\x96\x96@?'
p684
tp685
bag13
(g14
(I0
tp686
g16
tp687
Rp688
(I1
(I1
tp689
g23
I00
S'`&g\x12U\x11??'
p690
tp691
bag13
(g14
(I0
tp692
g16
tp693
Rp694
(I1
(I1
tp695
g23
I00
S'\x00\xfa\x12\xb7\x93D=?'
p696
tp697
bag13
(g14
(I0
tp698
g16
tp699
Rp700
(I1
(I1
tp701
g23
I00
S'\xea\x158\xe6z\xaf;?'
p702
tp703
bag13
(g14
(I0
tp704
g16
tp705
Rp706
(I1
(I1
tp707
g23
I00
S'\xf8C\xc0\x7f\x92B:?'
p708
tp709
bag13
(g14
(I0
tp710
g16
tp711
Rp712
(I1
(I1
tp713
g23
I00
S'\xc3V\xfdg\xe2\xf48?'
p714
tp715
bag13
(g14
(I0
tp716
g16
tp717
Rp718
(I1
(I1
tp719
g23
I00
S'\xae\xdeH2\\\xc27?'
p720
tp721
bag13
(g14
(I0
tp722
g16
tp723
Rp724
(I1
(I1
tp725
g23
I00
S'\xea\x8a?\x16p\xa96?'
p726
tp727
bag13
(g14
(I0
tp728
g16
tp729
Rp730
(I1
(I1
tp731
g23
I00
S'\xc2697a\xa85?'
p732
tp733
bag13
(g14
(I0
tp734
g16
tp735
Rp736
(I1
(I1
tp737
g23
I00
S'=\xe7\xba\xf5z\xbc4?'
p738
tp739
bag13
(g14
(I0
tp740
g16
tp741
Rp742
(I1
(I1
tp743
g23
I00
S'&\xd6\xbcL\x02\xe33?'
p744
tp745
bag13
(g14
(I0
tp746
g16
tp747
Rp748
(I1
(I1
tp749
g23
I00
S'\xe8\xa5\x1f\xf3\x07\x1a3?'
p750
tp751
bag13
(g14
(I0
tp752
g16
tp753
Rp754
(I1
(I1
tp755
g23
I00
S'\xbe\x80\x11SW`2?'
p756
tp757
bag13
(g14
(I0
tp758
g16
tp759
Rp760
(I1
(I1
tp761
g23
I00
S'D\xce\xdc\xa3\xd2\xb31?'
p762
tp763
bag13
(g14
(I0
tp764
g16
tp765
Rp766
(I1
(I1
tp767
g23
I00
S'\x8a~\x80r\xe3\x111?'
p768
tp769
bag13
(g14
(I0
tp770
g16
tp771
Rp772
(I1
(I1
tp773
g23
I00
S'u\x128\x8eby0?'
p774
tp775
bag13
(g14
(I0
tp776
g16
tp777
Rp778
(I1
(I1
tp779
g23
I00
S'\x1d\xaa\x1b\x8f\t\xd4/?'
p780
tp781
bag13
(g14
(I0
tp782
g16
tp783
Rp784
(I1
(I1
tp785
g23
I00
S'\x1c\xb23i\xe3\xc6.?'
p786
tp787
bag13
(g14
(I0
tp788
g16
tp789
Rp790
(I1
(I1
tp791
g23
I00
S'\xe7\xa0\xe2\x05\x19\xca-?'
p792
tp793
bag13
(g14
(I0
tp794
g16
tp795
Rp796
(I1
(I1
tp797
g23
I00
S'\xd0\xc2B)"\xdc,?'
p798
tp799
bag13
(g14
(I0
tp800
g16
tp801
Rp802
(I1
(I1
tp803
g23
I00
S'\x8dE\xcaks\xfb+?'
p804
tp805
bag13
(g14
(I0
tp806
g16
tp807
Rp808
(I1
(I1
tp809
g23
I00
S'\x96za\xf5\xa9&+?'
p810
tp811
bag13
(g14
(I0
tp812
g16
tp813
Rp814
(I1
(I1
tp815
g23
I00
S'*\xa1_o\x99\\*?'
p816
tp817
bag13
(g14
(I0
tp818
g16
tp819
Rp820
(I1
(I1
tp821
g23
I00
S'\xc4p\xfd\xa9I\x9c)?'
p822
tp823
bag13
(g14
(I0
tp824
g16
tp825
Rp826
(I1
(I1
tp827
g23
I00
S'l\xb2\xf1:\xee\xe4(?'
p828
tp829
bag13
(g14
(I0
tp830
g16
tp831
Rp832
(I1
(I1
tp833
g23
I00
S'\xe8\xa5\xaf\\\xdd5(?'
p834
tp835
bag13
(g14
(I0
tp836
g16
tp837
Rp838
(I1
(I1
tp839
g23
I00
S"\xc8\xcf\x1d\x14\x88\x8e'?"
p840
tp841
bag13
(g14
(I0
tp842
g16
tp843
Rp844
(I1
(I1
tp845
g23
I00
S'-./\nt\xee&?'
p846
tp847
bag13
(g14
(I0
tp848
g16
tp849
Rp850
(I1
(I1
tp851
g23
I00
S'\xd0\x10^\xe86U&?'
p852
tp853
bag13
(g14
(I0
tp854
g16
tp855
Rp856
(I1
(I1
tp857
g23
I00
S'\xfd5#\xe0r\xc2%?'
p858
tp859
bag13
(g14
(I0
tp860
g16
tp861
Rp862
(I1
(I1
tp863
g23
I00
S'\x126m\r\xd45%?'
p864
tp865
bag13
(g14
(I0
tp866
g16
tp867
Rp868
(I1
(I1
tp869
g23
I00
S'`\x07\x15x\x0e\xaf$?'
p870
tp871
bag13
(g14
(I0
tp872
g16
tp873
Rp874
(I1
(I1
tp875
g23
I00
S'\x0cu\x94\x8a\xdc-$?'
p876
tp877
bag13
(g14
(I0
tp878
g16
tp879
Rp880
(I1
(I1
tp881
g23
I00
S'B\x95U\xe1\xfd\xb1#?'
p882
tp883
bag13
(g14
(I0
tp884
g16
tp885
Rp886
(I1
(I1
tp887
g23
I00
S'\x9e+\\^6;#?'
p888
tp889
bag13
(g14
(I0
tp890
g16
tp891
Rp892
(I1
(I1
tp893
g23
I00
S'\xb8*UrM\xc9"?'
p894
tp895
bag13
(g14
(I0
tp896
g16
tp897
Rp898
(I1
(I1
tp899
g23
I00
S']\x04\x92\x8f\r\\"?'
p900
tp901
bag13
(g14
(I0
tp902
g16
tp903
Rp904
(I1
(I1
tp905
g23
I00
S'TS\xeb\xbdC\xf3!?'
p906
tp907
bag13
(g14
(I0
tp908
g16
tp909
Rp910
(I1
(I1
tp911
g23
I00
S'8\xc4dH\xbf\x8e!?'
p912
tp913
bag13
(g14
(I0
tp914
g16
tp915
Rp916
(I1
(I1
tp917
g23
I00
S'\xe9\x80\xe7~Q.!?'
p918
tp919
bag13
(g14
(I0
tp920
g16
tp921
Rp922
(I1
(I1
tp923
g23
I00
S'\xd7\x8c\x99\x87\xcd\xd1 ?'
p924
tp925
bag13
(g14
(I0
tp926
g16
tp927
Rp928
(I1
(I1
tp929
g23
I00
S'4\x95L<\x08y ?'
p930
tp931
bag13
(g14
(I0
tp932
g16
tp933
Rp934
(I1
(I1
tp935
g23
I00
S'\xdbP>\x11\xd8# ?'
p936
tp937
bag13
(g14
(I0
tp938
g16
tp939
Rp940
(I1
(I1
tp941
g23
I00
S'*\xcf\xed\x05*\xa4\x1f?'
p942
tp943
bag13
(g14
(I0
tp944
g16
tp945
Rp946
(I1
(I1
tp947
g23
I00
S'\x01\xc8\xff\x121\x07\x1f?'
p948
tp949
bag13
(g14
(I0
tp950
g16
tp951
Rp952
(I1
(I1
tp953
g23
I00
S'!\x1d\x02\x1f{p\x1e?'
p954
tp955
bag13
(g14
(I0
tp956
g16
tp957
Rp958
(I1
(I1
tp959
g23
I00
S'zw"\xd8\xc0\xdf\x1d?'
p960
tp961
bag13
(g14
(I0
tp962
g16
tp963
Rp964
(I1
(I1
tp965
g23
I00
S'}Y~\xbc\xbdT\x1d?'
p966
tp967
bag13
(g14
(I0
tp968
g16
tp969
Rp970
(I1
(I1
tp971
g23
I00
S'\x0ei\r\x130\xcf\x1c?'
p972
tp973
bag13
(g14
(I0
tp974
g16
tp975
Rp976
(I1
(I1
tp977
g23
I00
S'\xdc\x0c&\xe5\xd8N\x1c?'
p978
tp979
bag13
(g14
(I0
tp980
g16
tp981
Rp982
(I1
(I1
tp983
g23
I00
S' \xb3\xb0\xf7{\xd3\x1b?'
p984
tp985
bag13
(g14
(I0
tp986
g16
tp987
Rp988
(I1
(I1
tp989
g23
I00
S'\xe6\xafh\xc3\xdf\\\x1b?'
p990
tp991
bag13
(g14
(I0
tp992
g16
tp993
Rp994
(I1
(I1
tp995
g23
I00
S'\x97(\xc9k\xcd\xea\x1a?'
p996
tp997
bag13
(g14
(I0
tp998
g16
tp999
Rp1000
(I1
(I1
tp1001
g23
I00
S'\xd9\x9ew\xb4\x10}\x1a?'
p1002
tp1003
bag13
(g14
(I0
tp1004
g16
tp1005
Rp1006
(I1
(I1
tp1007
g23
I00
S'\x8f\xc5"\xf5w\x13\x1a?'
p1008
tp1009
bag13
(g14
(I0
tp1010
g16
tp1011
Rp1012
(I1
(I1
tp1013
g23
I00
S'\x8d\x16\xe4\x0b\xd4\xad\x19?'
p1014
tp1015
bag13
(g14
(I0
tp1016
g16
tp1017
Rp1018
(I1
(I1
tp1019
g23
I00
S'\x97\x9d=N\xf8K\x19?'
p1020
tp1021
bag13
(g14
(I0
tp1022
g16
tp1023
Rp1024
(I1
(I1
tp1025
g23
I00
S'\x9c\xb6\xcdx\xba\xed\x18?'
p1026
tp1027
bag13
(g14
(I0
tp1028
g16
tp1029
Rp1030
(I1
(I1
tp1031
g23
I00
S'\x9c\x15\xca\x9d\xf2\x92\x18?'
p1032
tp1033
bag13
(g14
(I0
tp1034
g16
tp1035
Rp1036
(I1
(I1
tp1037
g23
I00
S'\xbd5E\x12{;\x18?'
p1038
tp1039
bag13
(g14
(I0
tp1040
g16
tp1041
Rp1042
(I1
(I1
tp1043
g23
I00
S'\xcc;0Z0\xe7\x17?'
p1044
tp1045
bag13
(g14
(I0
tp1046
g16
tp1047
Rp1048
(I1
(I1
tp1049
g23
I00
S'\xa2+\xfb\x12\xf1\x95\x17?'
p1050
tp1051
bag13
(g14
(I0
tp1052
g16
tp1053
Rp1054
(I1
(I1
tp1055
g23
I00
S'\x08\xdf\xa9\xdc\x9dG\x17?'
p1056
tp1057
bag13
(g14
(I0
tp1058
g16
tp1059
Rp1060
(I1
(I1
tp1061
g23
I00
S'\xbc\x071A\x19\xfc\x16?'
p1062
tp1063
bag13
(g14
(I0
tp1064
g16
tp1065
Rp1066
(I1
(I1
tp1067
g23
I00
S'\x8f\xde\xf6\x99G\xb3\x16?'
p1068
tp1069
bag13
(g14
(I0
tp1070
g16
tp1071
Rp1072
(I1
(I1
tp1073
g23
I00
S'\xf8\xc6h\xf3\x0em\x16?'
p1074
tp1075
bag13
(g14
(I0
tp1076
g16
tp1077
Rp1078
(I1
(I1
tp1079
g23
I00
S'\x9e\xd4\xb9\xeeV)\x16?'
p1080
tp1081
bag13
(g14
(I0
tp1082
g16
tp1083
Rp1084
(I1
(I1
tp1085
g23
I00
S'P\x0f\x0b\xa2\x08\xe8\x15?'
p1086
tp1087
bag13
(g14
(I0
tp1088
g16
tp1089
Rp1090
(I1
(I1
tp1091
g23
I00
S'\xe8\x97pw\x0e\xa9\x15?'
p1092
tp1093
bag13
(g14
(I0
tp1094
g16
tp1095
Rp1096
(I1
(I1
tp1097
g23
I00
S'H\x1dw\x0bTl\x15?'
p1098
tp1099
bag13
(g14
(I0
tp1100
g16
tp1101
Rp1102
(I1
(I1
tp1103
g23
I00
S'\xc1\xee\xf2\x0b\xc61\x15?'
p1104
tp1105
bag13
(g14
(I0
tp1106
g16
tp1107
Rp1108
(I1
(I1
tp1109
g23
I00
S'H\x1d\xf6\x17R\xf9\x14?'
p1110
tp1111
bag13
(g14
(I0
tp1112
g16
tp1113
Rp1114
(I1
(I1
tp1115
g23
I00
S'\xa5\x81\xc7\xa1\xe6\xc2\x14?'
p1116
tp1117
bag13
(g14
(I0
tp1118
g16
tp1119
Rp1120
(I1
(I1
tp1121
g23
I00
S'\x0c@\x97\xd3r\x8e\x14?'
p1122
tp1123
bag13
(g14
(I0
tp1124
g16
tp1125
Rp1126
(I1
(I1
tp1127
g23
I00
S'f\x95xw\xe6[\x14?'
p1128
tp1129
bag13
(g14
(I0
tp1130
g16
tp1131
Rp1132
(I1
(I1
tp1133
g23
I00
S'd\x99\xe2\xe21+\x14?'
p1134
tp1135
bag13
(g14
(I0
tp1136
g16
tp1137
Rp1138
(I1
(I1
tp1139
g23
I00
S'Z\xb6\xaa\xe5E\xfc\x13?'
p1140
tp1141
bag13
(g14
(I0
tp1142
g16
tp1143
Rp1144
(I1
(I1
tp1145
g23
I00
S'Ly\x1e\xbc\x13\xcf\x13?'
p1146
tp1147
bag13
(g14
(I0
tp1148
g16
tp1149
Rp1150
(I1
(I1
tp1151
g23
I00
S'Qf\x9f\x03\x8d\xa3\x13?'
p1152
tp1153
bag13
(g14
(I0
tp1154
g16
tp1155
Rp1156
(I1
(I1
tp1157
g23
I00
S'\xbe\x10\xf2\xb0\xa3y\x13?'
p1158
tp1159
bag13
(g14
(I0
tp1160
g16
tp1161
Rp1162
(I1
(I1
tp1163
g23
I00
S'8\xe6T\x07JQ\x13?'
p1164
tp1165
basS'num_outputs'
p1166
I2
sS'momentum'
p1167
F0.9
sS'num_layers'
p1168
I2
sS'total_error'
p1169
g13
(g14
(I0
tp1170
g16
tp1171
Rp1172
(I1
(I2
I1
tp1173
g23
I00
S'\xbb\xbf%\x97\xa2\xd4\x03?\xb5\x0c\x84w\xf1\xcd\x02?'
p1174
tp1175
bsb.